; Function Attrs: nounwind uwtable
define ptr @l_Lean_PersistentHashMap_toList___rarg(ptr noundef readnone captures(none) %0, ptr noundef readnone captures(none) %1, ptr noundef %2) local_unnamed_addr #2 {
  %4 = load ptr, ptr @l_Lean_PersistentHashMap_toList___rarg___closed__1, align 8, !tbaa !9
  %5 = ptrtoint ptr %2 to i64
  %6 = and i64 %5, 1
  %.not.i45.i = icmp eq i64 %6, 0
  br i1 %.not.i45.i, label %10, label %7

7:                                                ; preds = %3
  %8 = lshr i64 %5, 1
  %9 = trunc i64 %8 to i32
  br label %lean_obj_tag.exit.i

10:                                               ; preds = %3
  %11 = getelementptr i8, ptr %2, i64 4
  %.val.i.i = load i32, ptr %11, align 4
  %12 = lshr i32 %.val.i.i, 24
  br label %lean_obj_tag.exit.i

lean_obj_tag.exit.i:                              ; preds = %10, %7
  %.0.i46.i = phi i32 [ %9, %7 ], [ %12, %10 ]
  %13 = icmp eq i32 %.0.i46.i, 0
  %14 = getelementptr inbounds nuw i8, ptr %2, i64 8
  %15 = load ptr, ptr %14, align 8, !tbaa !9
  br i1 %13, label %lean_nat_lt.exit.i, label %27

lean_nat_lt.exit.i:                               ; preds = %lean_obj_tag.exit.i
  %16 = getelementptr i8, ptr %15, i64 8
  %.val.i = load i64, ptr %16, align 8, !tbaa !12
  %.mask.i = and i64 %.val.i, 9223372036854775807
  %.not.i = icmp eq i64 %.mask.i, 0
  br i1 %.not.i, label %lean_dec.exit34.i, label %lean_dec.exit.i

lean_dec.exit34.i:                                ; preds = %lean_nat_lt.exit.i
  %17 = ptrtoint ptr %4 to i64
  %18 = and i64 %17, 1
  %.not48.i = icmp eq i64 %18, 0
  br i1 %.not48.i, label %19, label %l_Lean_PersistentHashMap_foldlMAux___at_Lean_PersistentHashMap_toList___spec__2___rarg.exit

19:                                               ; preds = %lean_dec.exit34.i
  %20 = load i32, ptr %4, align 4, !tbaa !4
  %21 = icmp sgt i32 %20, 1
  br i1 %21, label %22, label %24, !prof !11

22:                                               ; preds = %19
  %23 = add nsw i32 %20, -1
  store i32 %23, ptr %4, align 4, !tbaa !4
  br label %l_Lean_PersistentHashMap_foldlMAux___at_Lean_PersistentHashMap_toList___spec__2___rarg.exit

24:                                               ; preds = %19
  %.not.i35.i = icmp eq i32 %20, 0
  br i1 %.not.i35.i, label %l_Lean_PersistentHashMap_foldlMAux___at_Lean_PersistentHashMap_toList___spec__2___rarg.exit, label %25

25:                                               ; preds = %24
  tail call void @lean_dec_ref_cold(ptr noundef nonnull %4) #7
  br label %l_Lean_PersistentHashMap_foldlMAux___at_Lean_PersistentHashMap_toList___spec__2___rarg.exit

lean_dec.exit.i:                                  ; preds = %lean_nat_lt.exit.i
  %26 = tail call ptr @l_Array_foldlMUnsafe_fold___at_Lean_PersistentHashMap_toList___spec__3___rarg(ptr noundef %4, ptr noundef nonnull %15, i64 noundef 0, i64 noundef %.mask.i, ptr noundef nonnull inttoptr (i64 1 to ptr)) #9
  br label %l_Lean_PersistentHashMap_foldlMAux___at_Lean_PersistentHashMap_toList___spec__2___rarg.exit

27:                                               ; preds = %lean_obj_tag.exit.i
  %28 = getelementptr inbounds nuw i8, ptr %2, i64 16
  %29 = load ptr, ptr %28, align 8, !tbaa !9
  %30 = tail call ptr @l_Lean_PersistentHashMap_foldlMAux_traverse___at_Lean_PersistentHashMap_toList___spec__4___rarg(ptr noundef %4, ptr noundef %15, ptr noundef %29, ptr nonnull poison, ptr noundef nonnull inttoptr (i64 1 to ptr), ptr noundef nonnull inttoptr (i64 1 to ptr))
  br label %l_Lean_PersistentHashMap_foldlMAux___at_Lean_PersistentHashMap_toList___spec__2___rarg.exit

l_Lean_PersistentHashMap_foldlMAux___at_Lean_PersistentHashMap_toList___spec__2___rarg.exit: ; preds = %lean_dec.exit34.i, %22, %24, %25, %lean_dec.exit.i, %27
  %.2.i = phi ptr [ %30, %27 ], [ %26, %lean_dec.exit.i ], [ inttoptr (i64 1 to ptr), %25 ], [ inttoptr (i64 1 to ptr), %24 ], [ inttoptr (i64 1 to ptr), %22 ], [ inttoptr (i64 1 to ptr), %lean_dec.exit34.i ]
  ret ptr %.2.i
}